; Function Attrs: nounwind uwtable
define dso_local i32 @uv_tcp_init_ex(ptr noundef %0, ptr noundef %1, i32 noundef %2) local_unnamed_addr #0 {
  %4 = and i32 %2, 255
  %5 = and i32 %2, 247
  %or.cond = icmp eq i32 %5, 2
  %6 = icmp eq i32 %4, 0
  %or.cond3.not29 = or i1 %or.cond, %6
  %.not = icmp ult i32 %2, 256
  %or.cond24 = and i1 %.not, %or.cond3.not29
  br i1 %or.cond24, label %7, label %new_socket.exit

7:                                                ; preds = %3
  tail call void @uv__stream_init(ptr noundef %0, ptr noundef %1, i32 noundef 12) #7
  br i1 %6, label %new_socket.exit, label %8

8:                                                ; preds = %7
  %9 = tail call i32 @uv__socket(i32 noundef range(i32 1, 65536) %4, i32 noundef 1, i32 noundef 0) #7
  %10 = icmp slt i32 %9, 0
  br i1 %10, label %15, label %11

11:                                               ; preds = %8
  %12 = tail call i32 @uv__stream_open(ptr noundef %1, i32 noundef %9, i32 noundef 0) #7
  %.not.i = icmp eq i32 %12, 0
  br i1 %.not.i, label %new_socket.exit, label %13

13:                                               ; preds = %11
  %14 = tail call i32 @uv__close(i32 noundef %9) #7
  br label %15

15:                                               ; preds = %13, %8
  %.0.i.ph = phi i32 [ %9, %8 ], [ %12, %13 ]
  %16 = getelementptr inbounds nuw i8, ptr %1, i64 32
  %17 = load ptr, ptr %16, align 8
  %18 = getelementptr inbounds nuw i8, ptr %1, i64 40
  %19 = load ptr, ptr %18, align 8
  store ptr %17, ptr %19, align 8
  %20 = load ptr, ptr %18, align 8
  %21 = getelementptr inbounds nuw i8, ptr %17, i64 8
  store ptr %20, ptr %21, align 8
  %22 = getelementptr inbounds nuw i8, ptr %1, i64 184
  %23 = load i32, ptr %22, align 8
  %.not23 = icmp eq i32 %23, -1
  br i1 %.not23, label %26, label %24

24:                                               ; preds = %15
  %25 = tail call i32 @uv__close(i32 noundef %23) #7
  br label %26

26:                                               ; preds = %24, %15
  store i32 -1, ptr %22, align 8
  br label %new_socket.exit

new_socket.exit:                                  ; preds = %11, %7, %3, %26
  %.0 = phi i32 [ %.0.i.ph, %26 ], [ -22, %3 ], [ 0, %7 ], [ 0, %11 ]
  ret i32 %.0
}